; Function Attrs: mustprogress uwtable
define dso_local noundef i64 @_ZNK3net21QuicSentPacketManager27GetCongestionWindowInTcpMssEv(ptr nocapture noundef nonnull readonly align 8 dereferenceable(776) %this) unnamed_addr #0 align 2 {
entry:
  %send_algorithm_ = getelementptr inbounds i8, ptr %this, i64 488
  %0 = load ptr, ptr %send_algorithm_, align 8
  %vtable = load ptr, ptr %0, align 8
  %vfn = getelementptr inbounds i8, ptr %vtable, i64 96
  %1 = load ptr, ptr %vfn, align 8
  %call2 = tail call noundef i64 %1(ptr noundef nonnull align 8 dereferenceable(8) %0)
  %div = udiv i64 %call2, 1460
  ret i64 %div
}